target datalayout = "e-m:e-p270:32:32-p271:32:32-p272:64:64-i64:64-i128:128-f80:128-n8:16:32:64-S128"
target triple = "x86_64-pc-linux-gnu"

%"class.std::shared_ptr.7" = type { %"class.std::__shared_ptr.8" }
%"class.std::__shared_ptr.8" = type { ptr, %"class.std::__shared_count" }
%"class.std::__shared_count" = type { ptr }
%"class.arrow::Tensor" = type { ptr, %"class.std::shared_ptr.7", %"class.std::shared_ptr.10", %"class.std::vector", %"class.std::vector", %"class.std::vector.13" }
%"class.std::shared_ptr.10" = type { %"class.std::__shared_ptr.11" }
%"class.std::__shared_ptr.11" = type { ptr, %"class.std::__shared_count" }
%"class.std::vector" = type { %"struct.std::_Vector_base" }
%"struct.std::_Vector_base" = type { %"struct.std::_Vector_base<long, std::allocator<long>>::_Vector_impl" }
%"struct.std::_Vector_base<long, std::allocator<long>>::_Vector_impl" = type { %"struct.std::_Vector_base<long, std::allocator<long>>::_Vector_impl_data" }
%"struct.std::_Vector_base<long, std::allocator<long>>::_Vector_impl_data" = type { ptr, ptr, ptr }
%"class.std::vector.13" = type { %"struct.std::_Vector_base.14" }
%"struct.std::_Vector_base.14" = type { %"struct.std::_Vector_base<std::__cxx11::basic_string<char>, std::allocator<std::__cxx11::basic_string<char>>>::_Vector_impl" }
%"struct.std::_Vector_base<std::__cxx11::basic_string<char>, std::allocator<std::__cxx11::basic_string<char>>>::_Vector_impl" = type { %"struct.std::_Vector_base<std::__cxx11::basic_string<char>, std::allocator<std::__cxx11::basic_string<char>>>::_Vector_impl_data" }
%"struct.std::_Vector_base<std::__cxx11::basic_string<char>, std::allocator<std::__cxx11::basic_string<char>>>::_Vector_impl_data" = type { ptr, ptr, ptr }
%"class.arrow::Buffer" = type { ptr, i8, i8, ptr, i64, i64, i8, %"class.std::shared_ptr.10", %"class.std::shared_ptr.92" }
%"class.std::shared_ptr.92" = type { %"class.std::__shared_ptr.93" }
%"class.std::__shared_ptr.93" = type { ptr, %"class.std::__shared_count" }

; Function Attrs: mustprogress nounwind uwtable
define linkonce_odr noundef ptr @_ZNKSt12__shared_ptrIN5arrow6BufferELN9__gnu_cxx12_Lock_policyE2EE3getEv(ptr noundef nonnull align 8 dereferenceable(16) %0) #0 comdat align 2 {
  %2 = alloca ptr, align 8
  store ptr %0, ptr %2, align 8, !tbaa !322
  %3 = load ptr, ptr %2, align 8
  %4 = getelementptr inbounds nuw %"class.std::__shared_ptr.11", ptr %3, i32 0, i32 0
  %5 = load ptr, ptr %4, align 8, !tbaa !324
  ret ptr %5
}

; Function Attrs: mustprogress nounwind uwtable
define linkonce_odr noundef ptr @_ZNKSt19__shared_ptr_accessIN5arrow6BufferELN9__gnu_cxx12_Lock_policyE2ELb0ELb0EE6_M_getEv(ptr noundef nonnull align 1 dereferenceable(1) %0) #0 comdat align 2 {
  %2 = alloca ptr, align 8
  store ptr %0, ptr %2, align 8, !tbaa !327
  %3 = load ptr, ptr %2, align 8
  %4 = call noundef ptr @_ZNKSt12__shared_ptrIN5arrow6BufferELN9__gnu_cxx12_Lock_policyE2EE3getEv(ptr noundef nonnull align 8 dereferenceable(16) %3) #20
  ret ptr %4
}

; Function Attrs: mustprogress nounwind uwtable
define linkonce_odr noundef ptr @_ZNK5arrow6Buffer4dataEv(ptr noundef nonnull align 8 dereferenceable(80) %0) #0 comdat align 2 {
  %2 = alloca ptr, align 8
  store ptr %0, ptr %2, align 8, !tbaa !329
  %3 = load ptr, ptr %2, align 8
  %4 = getelementptr inbounds nuw %"class.arrow::Buffer", ptr %3, i32 0, i32 2
  %5 = load i8, ptr %4, align 1, !tbaa !330, !range !59, !noundef !60
  %6 = trunc i8 %5 to i1
  %7 = xor i1 %6, true
  %8 = xor i1 %7, true
  %9 = zext i1 %8 to i64
  %10 = call i64 @llvm.expect.i64(i64 %9, i64 1)
  %11 = icmp ne i64 %10, 0
  br i1 %11, label %12, label %15

12:                                               ; preds = %1
  %13 = getelementptr inbounds nuw %"class.arrow::Buffer", ptr %3, i32 0, i32 3
  %14 = load ptr, ptr %13, align 8, !tbaa !337
  br label %16

15:                                               ; preds = %1
  br label %16

16:                                               ; preds = %15, %12
  %17 = phi ptr [ %14, %12 ], [ null, %15 ]
  ret ptr %17
}

; Function Attrs: mustprogress nounwind uwtable
define linkonce_odr noundef ptr @_ZNKSt19__shared_ptr_accessIN5arrow6BufferELN9__gnu_cxx12_Lock_policyE2ELb0ELb0EEptEv(ptr noundef nonnull align 1 dereferenceable(1) %0) #0 comdat align 2 {
  %2 = alloca ptr, align 8
  store ptr %0, ptr %2, align 8, !tbaa !327
  %3 = load ptr, ptr %2, align 8
  %4 = call noundef ptr @_ZNKSt19__shared_ptr_accessIN5arrow6BufferELN9__gnu_cxx12_Lock_policyE2ELb0ELb0EE6_M_getEv(ptr noundef nonnull align 1 dereferenceable(1) %3) #20
  ret ptr %4
}

; Function Attrs: mustprogress nounwind uwtable
define linkonce_odr noundef i64 @_ZNKSt6vectorIlSaIlEE4sizeEv(ptr noundef nonnull align 8 dereferenceable(24) %0) #0 comdat align 2 {
  %2 = alloca ptr, align 8
  store ptr %0, ptr %2, align 8, !tbaa !78
  %3 = load ptr, ptr %2, align 8
  %4 = getelementptr inbounds nuw %"struct.std::_Vector_base", ptr %3, i32 0, i32 0
  %5 = getelementptr inbounds nuw %"struct.std::_Vector_base<long, std::allocator<long>>::_Vector_impl_data", ptr %4, i32 0, i32 1
  %6 = load ptr, ptr %5, align 8, !tbaa !1412
  %7 = getelementptr inbounds nuw %"struct.std::_Vector_base", ptr %3, i32 0, i32 0
  %8 = getelementptr inbounds nuw %"struct.std::_Vector_base<long, std::allocator<long>>::_Vector_impl_data", ptr %7, i32 0, i32 0
  %9 = load ptr, ptr %8, align 8, !tbaa !1410
  %10 = ptrtoint ptr %6 to i64
  %11 = ptrtoint ptr %9 to i64
  %12 = sub i64 %10, %11
  %13 = sdiv exact i64 %12, 8
  ret i64 %13
}

; Function Attrs: mustprogress nounwind uwtable
define linkonce_odr noundef ptr @_ZNK5arrow6Tensor8raw_dataEv(ptr noundef nonnull align 8 dereferenceable(112) %0) #0 comdat align 2 {
  %2 = alloca ptr, align 8
  store ptr %0, ptr %2, align 8, !tbaa !76
  %3 = load ptr, ptr %2, align 8
  %4 = getelementptr inbounds nuw %"class.arrow::Tensor", ptr %3, i32 0, i32 2
  %5 = call noundef ptr @_ZNKSt19__shared_ptr_accessIN5arrow6BufferELN9__gnu_cxx12_Lock_policyE2ELb0ELb0EEptEv(ptr noundef nonnull align 1 dereferenceable(1) %4) #20
  %6 = call noundef ptr @_ZNK5arrow6Buffer4dataEv(ptr noundef nonnull align 8 dereferenceable(80) %5)
  ret ptr %6
}

; Function Attrs: mustprogress nounwind uwtable
define linkonce_odr noundef i32 @_ZNK5arrow6Tensor4ndimEv(ptr noundef nonnull align 8 dereferenceable(112) %0) #0 comdat align 2 {
  %2 = alloca ptr, align 8
  store ptr %0, ptr %2, align 8, !tbaa !76
  %3 = load ptr, ptr %2, align 8
  %4 = getelementptr inbounds nuw %"class.arrow::Tensor", ptr %3, i32 0, i32 3
  %5 = call noundef i64 @_ZNKSt6vectorIlSaIlEE4sizeEv(ptr noundef nonnull align 8 dereferenceable(24) %4) #20
  %6 = trunc i64 %5 to i32
  ret i32 %6
}

; Function Attrs: mustprogress nounwind uwtable
define linkonce_odr noundef nonnull align 8 dereferenceable(24) ptr @_ZNK5arrow6Tensor7stridesEv(ptr noundef nonnull align 8 dereferenceable(112) %0) #0 comdat align 2 {
  %2 = alloca ptr, align 8
  store ptr %0, ptr %2, align 8, !tbaa !76
  %3 = load ptr, ptr %2, align 8
  %4 = getelementptr inbounds nuw %"class.arrow::Tensor", ptr %3, i32 0, i32 4
  ret ptr %4
}

; Function Attrs: mustprogress nounwind uwtable
define linkonce_odr noundef nonnull align 8 dereferenceable(8) ptr @_ZNKSt6vectorIlSaIlEEixEm(ptr noundef nonnull align 8 dereferenceable(24) %0, i64 noundef %1) #0 comdat align 2 {
  %3 = alloca ptr, align 8
  %4 = alloca i64, align 8
  store ptr %0, ptr %3, align 8, !tbaa !78
  store i64 %1, ptr %4, align 8, !tbaa !43
  %5 = load ptr, ptr %3, align 8
  %6 = getelementptr inbounds nuw %"struct.std::_Vector_base", ptr %5, i32 0, i32 0
  %7 = getelementptr inbounds nuw %"struct.std::_Vector_base<long, std::allocator<long>>::_Vector_impl_data", ptr %6, i32 0, i32 0
  %8 = load ptr, ptr %7, align 8, !tbaa !1410
  %9 = load i64, ptr %4, align 8, !tbaa !43
  %10 = getelementptr inbounds nuw i64, ptr %8, i64 %9
  ret ptr %10
}

; Function Attrs: mustprogress nounwind uwtable
define linkonce_odr noundef nonnull align 8 dereferenceable(24) ptr @_ZNK5arrow6Tensor5shapeEv(ptr noundef nonnull align 8 dereferenceable(112) %0) #0 comdat align 2 {
  %2 = alloca ptr, align 8
  store ptr %0, ptr %2, align 8, !tbaa !76
  %3 = load ptr, ptr %2, align 8
  %4 = getelementptr inbounds nuw %"class.arrow::Tensor", ptr %3, i32 0, i32 3
  ret ptr %4
}

; Function Attrs: mustprogress uwtable
define internal noundef zeroext i1 @_ZN5arrow12_GLOBAL__N_133StridedIntegerTensorContentEqualsEilliRKNS_6TensorES3_(i32 noundef %0, i64 noundef %1, i64 noundef %2, i32 noundef %3, ptr noundef nonnull align 8 dereferenceable(112) %4, ptr noundef nonnull align 8 dereferenceable(112) %5) #1 {
  %7 = alloca i1, align 1
  %8 = alloca i32, align 4
  %9 = alloca i64, align 8
  %10 = alloca i64, align 8
  %11 = alloca i32, align 4
  %12 = alloca ptr, align 8
  %13 = alloca ptr, align 8
  %14 = alloca i64, align 8
  %15 = alloca i64, align 8
  %16 = alloca i64, align 8
  %17 = alloca i64, align 8
  %18 = alloca i32, align 4
  %19 = alloca i64, align 8
  store i32 %0, ptr %8, align 4, !tbaa !8
  store i64 %1, ptr %9, align 8, !tbaa !43
  store i64 %2, ptr %10, align 8, !tbaa !43
  store i32 %3, ptr %11, align 4, !tbaa !8
  store ptr %4, ptr %12, align 8, !tbaa !76
  store ptr %5, ptr %13, align 8, !tbaa !76
  call void @llvm.lifetime.start.p0(i64 8, ptr %14) #20
  %20 = load ptr, ptr %12, align 8, !tbaa !76
  %21 = call noundef nonnull align 8 dereferenceable(24) ptr @_ZNK5arrow6Tensor5shapeEv(ptr noundef nonnull align 8 dereferenceable(112) %20)
  %22 = load i32, ptr %8, align 4, !tbaa !8
  %23 = sext i32 %22 to i64
  %24 = call noundef nonnull align 8 dereferenceable(8) ptr @_ZNKSt6vectorIlSaIlEEixEm(ptr noundef nonnull align 8 dereferenceable(24) %21, i64 noundef %23) #20
  %25 = load i64, ptr %24, align 8, !tbaa !43
  store i64 %25, ptr %14, align 8, !tbaa !43
  call void @llvm.lifetime.start.p0(i64 8, ptr %15) #20
  %26 = load ptr, ptr %12, align 8, !tbaa !76
  %27 = call noundef nonnull align 8 dereferenceable(24) ptr @_ZNK5arrow6Tensor7stridesEv(ptr noundef nonnull align 8 dereferenceable(112) %26)
  %28 = load i32, ptr %8, align 4, !tbaa !8
  %29 = sext i32 %28 to i64
  %30 = call noundef nonnull align 8 dereferenceable(8) ptr @_ZNKSt6vectorIlSaIlEEixEm(ptr noundef nonnull align 8 dereferenceable(24) %27, i64 noundef %29) #20
  %31 = load i64, ptr %30, align 8, !tbaa !43
  store i64 %31, ptr %15, align 8, !tbaa !43
  call void @llvm.lifetime.start.p0(i64 8, ptr %16) #20
  %32 = load ptr, ptr %13, align 8, !tbaa !76
  %33 = call noundef nonnull align 8 dereferenceable(24) ptr @_ZNK5arrow6Tensor7stridesEv(ptr noundef nonnull align 8 dereferenceable(112) %32)
  %34 = load i32, ptr %8, align 4, !tbaa !8
  %35 = sext i32 %34 to i64
  %36 = call noundef nonnull align 8 dereferenceable(8) ptr @_ZNKSt6vectorIlSaIlEEixEm(ptr noundef nonnull align 8 dereferenceable(24) %33, i64 noundef %35) #20
  %37 = load i64, ptr %36, align 8, !tbaa !43
  store i64 %37, ptr %16, align 8, !tbaa !43
  %38 = load i32, ptr %8, align 4, !tbaa !8
  %39 = load ptr, ptr %12, align 8, !tbaa !76
  %40 = call noundef i32 @_ZNK5arrow6Tensor4ndimEv(ptr noundef nonnull align 8 dereferenceable(112) %39)
  %41 = sub nsw i32 %40, 1
  %42 = icmp eq i32 %38, %41
  br i1 %42, label %43, label %78

43:                                               ; preds = %6
  call void @llvm.lifetime.start.p0(i64 8, ptr %17) #20
  store i64 0, ptr %17, align 8, !tbaa !43
  br label %44

44:                                               ; preds = %72, %43
  %45 = load i64, ptr %17, align 8, !tbaa !43
  %46 = load i64, ptr %14, align 8, !tbaa !43
  %47 = icmp slt i64 %45, %46
  br i1 %47, label %49, label %48

48:                                               ; preds = %44
  store i32 2, ptr %18, align 4
  br label %75

49:                                               ; preds = %44
  %50 = load ptr, ptr %12, align 8, !tbaa !76
  %51 = call noundef ptr @_ZNK5arrow6Tensor8raw_dataEv(ptr noundef nonnull align 8 dereferenceable(112) %50)
  %52 = load i64, ptr %9, align 8, !tbaa !43
  %53 = getelementptr inbounds i8, ptr %51, i64 %52
  %54 = load i64, ptr %17, align 8, !tbaa !43
  %55 = load i64, ptr %15, align 8, !tbaa !43
  %56 = mul nsw i64 %54, %55
  %57 = getelementptr inbounds i8, ptr %53, i64 %56
  %58 = load ptr, ptr %13, align 8, !tbaa !76
  %59 = call noundef ptr @_ZNK5arrow6Tensor8raw_dataEv(ptr noundef nonnull align 8 dereferenceable(112) %58)
  %60 = load i64, ptr %10, align 8, !tbaa !43
  %61 = getelementptr inbounds i8, ptr %59, i64 %60
  %62 = load i64, ptr %17, align 8, !tbaa !43
  %63 = load i64, ptr %16, align 8, !tbaa !43
  %64 = mul nsw i64 %62, %63
  %65 = getelementptr inbounds i8, ptr %61, i64 %64
  %66 = load i32, ptr %11, align 4, !tbaa !8
  %67 = sext i32 %66 to i64
  %68 = call i32 @memcmp(ptr noundef %57, ptr noundef %65, i64 noundef %67) #21
  %69 = icmp ne i32 %68, 0
  br i1 %69, label %70, label %71

70:                                               ; preds = %49
  store i1 false, ptr %7, align 1
  store i32 1, ptr %18, align 4
  br label %75

71:                                               ; preds = %49
  br label %72

72:                                               ; preds = %71
  %73 = load i64, ptr %17, align 8, !tbaa !43
  %74 = add nsw i64 %73, 1
  store i64 %74, ptr %17, align 8, !tbaa !43
  br label %44, !llvm.loop !1406

75:                                               ; preds = %70, %48
  call void @llvm.lifetime.end.p0(i64 8, ptr %17) #20
  %76 = load i32, ptr %18, align 4
  switch i32 %76, label %107 [
    i32 2, label %77
  ]

77:                                               ; preds = %75
  store i1 true, ptr %7, align 1
  store i32 1, ptr %18, align 4
  br label %107

78:                                               ; preds = %6
  call void @llvm.lifetime.start.p0(i64 8, ptr %19) #20
  store i64 0, ptr %19, align 8, !tbaa !43
  br label %79

79:                                               ; preds = %101, %78
  %80 = load i64, ptr %19, align 8, !tbaa !43
  %81 = load i64, ptr %14, align 8, !tbaa !43
  %82 = icmp slt i64 %80, %81
  br i1 %82, label %84, label %83

83:                                               ; preds = %79
  store i32 5, ptr %18, align 4
  br label %104

84:                                               ; preds = %79
  %85 = load i32, ptr %8, align 4, !tbaa !8
  %86 = add nsw i32 %85, 1
  %87 = load i64, ptr %9, align 8, !tbaa !43
  %88 = load i64, ptr %10, align 8, !tbaa !43
  %89 = load i32, ptr %11, align 4, !tbaa !8
  %90 = load ptr, ptr %12, align 8, !tbaa !76
  %91 = load ptr, ptr %13, align 8, !tbaa !76
  %92 = call noundef zeroext i1 @_ZN5arrow12_GLOBAL__N_133StridedIntegerTensorContentEqualsEilliRKNS_6TensorES3_(i32 noundef %86, i64 noundef %87, i64 noundef %88, i32 noundef %89, ptr noundef nonnull align 8 dereferenceable(112) %90, ptr noundef nonnull align 8 dereferenceable(112) %91)
  br i1 %92, label %94, label %93

93:                                               ; preds = %84
  store i1 false, ptr %7, align 1
  store i32 1, ptr %18, align 4
  br label %104

94:                                               ; preds = %84
  %95 = load i64, ptr %15, align 8, !tbaa !43
  %96 = load i64, ptr %9, align 8, !tbaa !43
  %97 = add nsw i64 %96, %95
  store i64 %97, ptr %9, align 8, !tbaa !43
  %98 = load i64, ptr %16, align 8, !tbaa !43
  %99 = load i64, ptr %10, align 8, !tbaa !43
  %100 = add nsw i64 %99, %98
  store i64 %100, ptr %10, align 8, !tbaa !43
  br label %101

101:                                              ; preds = %94
  %102 = load i64, ptr %19, align 8, !tbaa !43
  %103 = add nsw i64 %102, 1
  store i64 %103, ptr %19, align 8, !tbaa !43
  br label %79, !llvm.loop !1407

104:                                              ; preds = %93, %83
  call void @llvm.lifetime.end.p0(i64 8, ptr %19) #20
  %105 = load i32, ptr %18, align 4
  switch i32 %105, label %107 [
    i32 5, label %106
  ]

106:                                              ; preds = %104
  store i1 true, ptr %7, align 1
  store i32 1, ptr %18, align 4
  br label %107

107:                                              ; preds = %106, %104, %77, %75
  call void @llvm.lifetime.end.p0(i64 8, ptr %16) #20
  call void @llvm.lifetime.end.p0(i64 8, ptr %15) #20
  call void @llvm.lifetime.end.p0(i64 8, ptr %14) #20
  %108 = load i1, ptr %7, align 1
  ret i1 %108
}