; Function Attrs: mustprogress nofree nounwind willreturn memory(read, inaccessiblemem: none) uwtable
define internal fastcc noundef zeroext i1 @_ZN5arrow12_GLOBAL__N_133StridedIntegerTensorContentEqualsEilliRKNS_6TensorES3_(i32 noundef %0, i64 noundef %1, i64 noundef %2, i32 noundef %3, ptr noundef nonnull readonly align 8 captures(none) dereferenceable(112) %4, ptr noundef nonnull readonly align 8 captures(none) dereferenceable(112) %5) unnamed_addr #19 {
  %7 = getelementptr inbounds nuw i8, ptr %4, i64 40
  %8 = sext i32 %0 to i64
  %9 = load ptr, ptr %7, align 8, !tbaa !280
  %10 = getelementptr inbounds nuw i64, ptr %9, i64 %8
  %11 = load i64, ptr %10, align 8, !tbaa !223
  %12 = getelementptr inbounds nuw i8, ptr %4, i64 64
  %13 = load ptr, ptr %12, align 8, !tbaa !280
  %14 = getelementptr inbounds nuw i64, ptr %13, i64 %8
  %15 = load i64, ptr %14, align 8, !tbaa !223
  %16 = getelementptr inbounds nuw i8, ptr %5, i64 64
  %17 = load ptr, ptr %16, align 8, !tbaa !280
  %18 = getelementptr inbounds nuw i64, ptr %17, i64 %8
  %19 = load i64, ptr %18, align 8, !tbaa !223
  %20 = getelementptr inbounds nuw i8, ptr %4, i64 48
  %21 = load ptr, ptr %20, align 8, !tbaa !277
  %22 = ptrtoint ptr %21 to i64
  %23 = ptrtoint ptr %9 to i64
  %24 = sub i64 %22, %23
  %25 = lshr exact i64 %24, 3
  %26 = trunc i64 %25 to i32
  %27 = add nsw i32 %26, -1
  %28 = icmp eq i32 %0, %27
  %.not4455 = icmp slt i64 %11, 1
  br i1 %28, label %.preheader, label %.preheader46

.preheader46:                                     ; preds = %6
  br i1 %.not4455, label %.loopexit, label %.lr.ph

.lr.ph:                                           ; preds = %.preheader46
  %29 = add nsw i32 %0, 1
  br label %55

.preheader:                                       ; preds = %6
  br i1 %.not4455, label %.loopexit, label %.lr.ph57

.lr.ph57:                                         ; preds = %.preheader
  %30 = getelementptr inbounds nuw i8, ptr %4, i64 24
  %31 = load ptr, ptr %30, align 8, !tbaa !169
  %32 = getelementptr inbounds nuw i8, ptr %31, i64 9
  %33 = load i8, ptr %32, align 1, !tbaa !296, !range !81, !noundef !82
  %34 = trunc nuw i8 %33 to i1
  %35 = getelementptr inbounds nuw i8, ptr %31, i64 16
  %36 = load ptr, ptr %35, align 8
  %37 = select i1 %34, ptr %36, ptr null, !prof !96
  %38 = getelementptr inbounds i8, ptr %37, i64 %1
  %39 = getelementptr inbounds nuw i8, ptr %5, i64 24
  %40 = load ptr, ptr %39, align 8, !tbaa !169
  %41 = getelementptr inbounds nuw i8, ptr %40, i64 9
  %42 = load i8, ptr %41, align 1, !tbaa !296, !range !81, !noundef !82
  %43 = trunc nuw i8 %42 to i1
  %44 = getelementptr inbounds nuw i8, ptr %40, i64 16
  %45 = load ptr, ptr %44, align 8
  %46 = select i1 %43, ptr %45, ptr null, !prof !96
  %47 = getelementptr inbounds i8, ptr %46, i64 %2
  %48 = sext i32 %3 to i64
  br label %49

49:                                               ; preds = %49, %.lr.ph57
  %.03756 = phi i64 [ 0, %.lr.ph57 ], [ %54, %49 ]
  %50 = mul nsw i64 %.03756, %15
  %51 = getelementptr inbounds i8, ptr %38, i64 %50
  %52 = mul nsw i64 %.03756, %19
  %53 = getelementptr inbounds i8, ptr %47, i64 %52
  %bcmp = tail call i32 @bcmp(ptr %51, ptr %53, i64 %48)
  %.not43 = icmp eq i32 %bcmp, 0
  %54 = add nuw nsw i64 %.03756, 1
  %exitcond63.not = icmp ne i64 %54, %11
  %or.cond.not = select i1 %.not43, i1 %exitcond63.not, i1 false
  br i1 %or.cond.not, label %49, label %.loopexit, !llvm.loop !1075

55:                                               ; preds = %.lr.ph, %57
  %.052 = phi i64 [ 0, %.lr.ph ], [ %60, %57 ]
  %.04051 = phi i64 [ %1, %.lr.ph ], [ %58, %57 ]
  %.04150 = phi i64 [ %2, %.lr.ph ], [ %59, %57 ]
  %56 = tail call fastcc noundef zeroext i1 @_ZN5arrow12_GLOBAL__N_133StridedIntegerTensorContentEqualsEilliRKNS_6TensorES3_(i32 noundef %29, i64 noundef %.04051, i64 noundef %.04150, i32 noundef %3, ptr noundef nonnull align 8 dereferenceable(112) %4, ptr noundef nonnull align 8 dereferenceable(112) %5)
  br i1 %56, label %57, label %.loopexit

57:                                               ; preds = %55
  %58 = add nsw i64 %.04051, %15
  %59 = add nsw i64 %.04150, %19
  %60 = add nuw nsw i64 %.052, 1
  %exitcond.not = icmp eq i64 %60, %11
  br i1 %exitcond.not, label %.loopexit, label %55, !llvm.loop !1076

.loopexit:                                        ; preds = %55, %57, %49, %.preheader46, %.preheader
  %.139 = phi i1 [ true, %.preheader ], [ true, %.preheader46 ], [ %.not43, %49 ], [ %56, %57 ], [ %56, %55 ]
  ret i1 %.139
}